; Function Attrs: nounwind uwtable
define internal range(i32 -1, 60) i32 @entity2(ptr noundef captures(none) %0, i32 noundef %1, ptr noundef %2, ptr noundef %3, ptr noundef %4) #1 {
  switch i32 %1, label %17 [
    i32 15, label %common.exit
    i32 18, label %6
    i32 27, label %15
  ]

6:                                                ; preds = %5
  %7 = getelementptr inbounds nuw i8, ptr %4, i64 48
  %8 = load ptr, ptr %7, align 8, !tbaa !12
  %9 = tail call i32 %8(ptr noundef %4, ptr noundef %2, ptr noundef %3, ptr noundef nonnull @KW_SYSTEM) #5
  %.not = icmp eq i32 %9, 0
  br i1 %.not, label %11, label %10

10:                                               ; preds = %6
  store ptr @entity4, ptr %0, align 8, !tbaa !3
  br label %common.exit

11:                                               ; preds = %6
  %12 = load ptr, ptr %7, align 8, !tbaa !12
  %13 = tail call i32 %12(ptr noundef nonnull %4, ptr noundef %2, ptr noundef %3, ptr noundef nonnull @KW_PUBLIC) #5
  %.not15 = icmp eq i32 %13, 0
  br i1 %.not15, label %.thread, label %14

14:                                               ; preds = %11
  store ptr @entity3, ptr %0, align 8, !tbaa !3
  br label %common.exit

15:                                               ; preds = %5
  store ptr @declClose, ptr %0, align 8, !tbaa !3
  %16 = getelementptr inbounds nuw i8, ptr %0, i64 12
  store i32 11, ptr %16, align 4, !tbaa !15
  br label %common.exit

17:                                               ; preds = %5
  %18 = getelementptr inbounds nuw i8, ptr %0, i64 20
  %19 = load i32, ptr %18, align 4, !tbaa !9
  %20 = icmp eq i32 %19, 0
  %21 = icmp eq i32 %1, 28
  %or.cond.i = and i1 %21, %20
  br i1 %or.cond.i, label %common.exit, label %.thread

.thread:                                          ; preds = %11, %17
  store ptr @error, ptr %0, align 8, !tbaa !3
  br label %common.exit

common.exit:                                      ; preds = %.thread, %17, %5, %15, %14, %10
  %.0 = phi i32 [ 12, %15 ], [ 11, %10 ], [ 11, %14 ], [ 11, %5 ], [ -1, %.thread ], [ 59, %17 ]
  ret i32 %.0
}